target datalayout = "e-m:e-p270:32:32-p271:32:32-p272:64:64-i64:64-i128:128-f80:128-n8:16:32:64-S128"
target triple = "x86_64-pc-linux-gnu"

%struct._udt_conversation = type { i8, i32 }

@proto_udt = internal global i32 0, align 4
@udt_handle = internal global ptr null, align 8

; Function Attrs: null_pointer_is_valid sspstrong uwtable
define internal zeroext i1 @dissect_udt_heur(ptr noundef %0, ptr noundef %1, ptr noundef %2, ptr noundef %3, i1 noundef zeroext %4) #0 {
  %6 = alloca i1, align 1
  %7 = alloca ptr, align 8
  %8 = alloca ptr, align 8
  %9 = alloca ptr, align 8
  %10 = alloca ptr, align 8
  %11 = alloca i8, align 1
  %12 = alloca ptr, align 8
  %13 = alloca ptr, align 8
  %14 = alloca i32, align 4
  store ptr %0, ptr %7, align 8
  store ptr %1, ptr %8, align 8
  store ptr %2, ptr %9, align 8
  store ptr %3, ptr %10, align 8
  %15 = zext i1 %4 to i8
  store i8 %15, ptr %11, align 1
  call void @llvm.lifetime.start.p0(i64 8, ptr %12) #5
  call void @llvm.lifetime.start.p0(i64 8, ptr %13) #5
  %16 = load ptr, ptr %8, align 8
  %17 = call ptr @find_or_create_conversation(ptr noundef %16)
  store ptr %17, ptr %12, align 8
  %18 = load ptr, ptr %12, align 8
  %19 = load i32, ptr @proto_udt, align 4
  %20 = call ptr @conversation_get_proto_data(ptr noundef %18, i32 noundef %19)
  store ptr %20, ptr %13, align 8
  %21 = load ptr, ptr %13, align 8
  %22 = icmp ne ptr %21, null
  br i1 %22, label %23, label %40

23:                                               ; preds = %5
  %24 = load i8, ptr %11, align 1, !range !9, !noundef !10
  %25 = trunc i8 %24 to i1
  %26 = zext i1 %25 to i32
  %27 = load ptr, ptr %13, align 8
  %28 = getelementptr inbounds nuw %struct._udt_conversation, ptr %27, i32 0, i32 0
  %29 = load i8, ptr %28, align 4, !range !9, !noundef !10
  %30 = trunc i8 %29 to i1
  %31 = zext i1 %30 to i32
  %32 = icmp ne i32 %26, %31
  br i1 %32, label %33, label %34

33:                                               ; preds = %23
  store i1 false, ptr %6, align 1
  store i32 1, ptr %14, align 4
  br label %96

34:                                               ; preds = %23
  %35 = load ptr, ptr %7, align 8
  %36 = load ptr, ptr %8, align 8
  %37 = load ptr, ptr %9, align 8
  %38 = load ptr, ptr %10, align 8
  %39 = call i32 @dissect_udt(ptr noundef %35, ptr noundef %36, ptr noundef %37, ptr noundef %38)
  br label %95

40:                                               ; preds = %5
  %41 = load ptr, ptr %7, align 8
  %42 = call i32 @tvb_captured_length(ptr noundef %41)
  %43 = icmp ult i32 %42, 24
  br i1 %43, label %44, label %45

44:                                               ; preds = %40
  store i1 false, ptr %6, align 1
  store i32 1, ptr %14, align 4
  br label %96

45:                                               ; preds = %40
  %46 = load ptr, ptr %7, align 8
  %47 = call i32 @tvb_get_ntohl(ptr noundef %46, i32 noundef 0)
  %48 = icmp ne i32 %47, -2147483648
  br i1 %48, label %49, label %50

49:                                               ; preds = %45
  store i1 false, ptr %6, align 1
  store i32 1, ptr %14, align 4
  br label %96

50:                                               ; preds = %45
  %51 = load ptr, ptr %7, align 8
  %52 = call i32 @tvb_get_ntohl(ptr noundef %51, i32 noundef 16)
  %53 = icmp ne i32 %52, 4
  br i1 %53, label %54, label %55

54:                                               ; preds = %50
  store i1 false, ptr %6, align 1
  store i32 1, ptr %14, align 4
  br label %96

55:                                               ; preds = %50
  %56 = load ptr, ptr %7, align 8
  %57 = call i32 @tvb_get_ntohl(ptr noundef %56, i32 noundef 20)
  %58 = icmp ne i32 %57, 2
  br i1 %58, label %59, label %64

59:                                               ; preds = %55
  %60 = load ptr, ptr %7, align 8
  %61 = call i32 @tvb_get_ntohl(ptr noundef %60, i32 noundef 20)
  %62 = icmp ne i32 %61, 1
  br i1 %62, label %63, label %64

63:                                               ; preds = %59
  store i1 false, ptr %6, align 1
  store i32 1, ptr %14, align 4
  br label %96

64:                                               ; preds = %59, %55
  %65 = call ptr @wmem_file_scope()
  %66 = call noalias ptr @wmem_alloc0(ptr noundef %65, i64 noundef 8) #6
  store ptr %66, ptr %13, align 8
  %67 = load i8, ptr %11, align 1, !range !9, !noundef !10
  %68 = trunc i8 %67 to i1
  %69 = load ptr, ptr %13, align 8
  %70 = getelementptr inbounds nuw %struct._udt_conversation, ptr %69, i32 0, i32 0
  %71 = zext i1 %68 to i8
  store i8 %71, ptr %70, align 4
  %72 = load ptr, ptr %7, align 8
  %73 = call i32 @tvb_captured_length(ptr noundef %72)
  %74 = icmp uge i32 %73, 28
  br i1 %74, label %75, label %80

75:                                               ; preds = %64
  %76 = load ptr, ptr %7, align 8
  %77 = call i32 @tvb_get_ntohl(ptr noundef %76, i32 noundef 24)
  %78 = load ptr, ptr %13, align 8
  %79 = getelementptr inbounds nuw %struct._udt_conversation, ptr %78, i32 0, i32 1
  store i32 %77, ptr %79, align 4
  br label %80

80:                                               ; preds = %75, %64
  %81 = load ptr, ptr %12, align 8
  %82 = load i32, ptr @proto_udt, align 4
  %83 = load ptr, ptr %13, align 8
  call void @conversation_add_proto_data(ptr noundef %81, i32 noundef %82, ptr noundef %83)
  %84 = load i8, ptr %11, align 1, !range !9, !noundef !10
  %85 = trunc i8 %84 to i1
  br i1 %85, label %89, label %86

86:                                               ; preds = %80
  %87 = load ptr, ptr %12, align 8
  %88 = load ptr, ptr @udt_handle, align 8
  call void @conversation_set_dissector(ptr noundef %87, ptr noundef %88)
  br label %89

89:                                               ; preds = %86, %80
  %90 = load ptr, ptr %7, align 8
  %91 = load ptr, ptr %8, align 8
  %92 = load ptr, ptr %9, align 8
  %93 = load ptr, ptr %10, align 8
  %94 = call i32 @dissect_udt(ptr noundef %90, ptr noundef %91, ptr noundef %92, ptr noundef %93)
  br label %95

95:                                               ; preds = %89, %34
  store i1 true, ptr %6, align 1
  store i32 1, ptr %14, align 4
  br label %96

96:                                               ; preds = %95, %63, %54, %49, %44, %33
  call void @llvm.lifetime.end.p0(i64 8, ptr %13) #5
  call void @llvm.lifetime.end.p0(i64 8, ptr %12) #5
  %97 = load i1, ptr %6, align 1
  ret i1 %97
}