; Function Attrs: null_pointer_is_valid sspstrong uwtable
define internal fastcc noundef zeroext i1 @dissect_udt_heur(ptr noundef %0, ptr noundef %1, ptr noundef %2, ptr noundef readnone captures(none) %3, i1 noundef zeroext %4) unnamed_addr #0 {
  %6 = zext i1 %4 to i8
  %7 = tail call ptr @find_or_create_conversation(ptr noundef %1)
  %8 = load i32, ptr @proto_udt, align 4
  %9 = tail call ptr @conversation_get_proto_data(ptr noundef %7, i32 noundef %8)
  %.not = icmp eq ptr %9, null
  br i1 %.not, label %12, label %10

10:                                               ; preds = %5
  %11 = load i8, ptr %9, align 4, !range !9, !noundef !10
  %.not32 = icmp eq i8 %11, %6
  br i1 %.not32, label %.sink.split, label %36

12:                                               ; preds = %5
  %13 = tail call i32 @tvb_captured_length(ptr noundef %0)
  %14 = icmp ult i32 %13, 24
  br i1 %14, label %36, label %15

15:                                               ; preds = %12
  %16 = tail call i32 @tvb_get_ntohl(ptr noundef %0, i32 noundef 0)
  %.not28 = icmp eq i32 %16, -2147483648
  br i1 %.not28, label %17, label %36

17:                                               ; preds = %15
  %18 = tail call i32 @tvb_get_ntohl(ptr noundef %0, i32 noundef 16)
  %.not29 = icmp eq i32 %18, 4
  br i1 %.not29, label %19, label %36

19:                                               ; preds = %17
  %20 = tail call i32 @tvb_get_ntohl(ptr noundef %0, i32 noundef 20)
  %.not30 = icmp eq i32 %20, 2
  br i1 %.not30, label %23, label %21

21:                                               ; preds = %19
  %22 = tail call i32 @tvb_get_ntohl(ptr noundef %0, i32 noundef 20)
  %.not31 = icmp eq i32 %22, 1
  br i1 %.not31, label %23, label %36

23:                                               ; preds = %21, %19
  %24 = tail call ptr @wmem_file_scope()
  %25 = tail call noalias dereferenceable_or_null(8) ptr @wmem_alloc0(ptr noundef %24, i64 noundef 8) #6
  store i8 %6, ptr %25, align 4
  %26 = tail call i32 @tvb_captured_length(ptr noundef %0)
  %27 = icmp ugt i32 %26, 27
  br i1 %27, label %28, label %31

28:                                               ; preds = %23
  %29 = tail call i32 @tvb_get_ntohl(ptr noundef %0, i32 noundef 24)
  %30 = getelementptr inbounds nuw i8, ptr %25, i64 4
  store i32 %29, ptr %30, align 4
  br label %31

31:                                               ; preds = %28, %23
  %32 = load i32, ptr @proto_udt, align 4
  tail call void @conversation_add_proto_data(ptr noundef %7, i32 noundef %32, ptr noundef %25)
  br i1 %4, label %.sink.split, label %33

33:                                               ; preds = %31
  %34 = load ptr, ptr @udt_handle, align 8
  tail call void @conversation_set_dissector(ptr noundef %7, ptr noundef %34)
  br label %.sink.split

.sink.split:                                      ; preds = %31, %33, %10
  %35 = tail call i32 @dissect_udt(ptr noundef %0, ptr noundef %1, ptr noundef %2, ptr poison)
  br label %36

36:                                               ; preds = %.sink.split, %21, %17, %15, %12, %10
  %.0 = phi i1 [ false, %10 ], [ false, %12 ], [ false, %15 ], [ false, %17 ], [ false, %21 ], [ true, %.sink.split ]
  ret i1 %.0
}